; Function Attrs: mustprogress nounwind uwtable
define internal fastcc void @_ZN5arrow12_GLOBAL__N_116NullArrayFactoryD2Ev(ptr nocapture noundef nonnull readonly align 8 dereferenceable(56) %this) unnamed_addr #1 align 2 personality ptr @__gxx_personality_v0 {
entry:
  %_M_refcount.i.i = getelementptr inbounds i8, ptr %this, i64 48
  %0 = load ptr, ptr %_M_refcount.i.i, align 8
  %cmp.not.i.i.i = icmp eq ptr %0, null
  br i1 %cmp.not.i.i.i, label %_ZNSt10shared_ptrIN5arrow6BufferEED2Ev.exit, label %if.then.i.i.i

if.then.i.i.i:                                    ; preds = %entry
  %_M_use_count.i.i.i.i = getelementptr inbounds i8, ptr %0, i64 8
  %1 = load atomic i64, ptr %_M_use_count.i.i.i.i acquire, align 8
  %cmp.i.i.i.i = icmp eq i64 %1, 4294967297
  %2 = trunc i64 %1 to i32
  br i1 %cmp.i.i.i.i, label %if.then.i.i.i.i, label %if.end.i.i.i.i

if.then.i.i.i.i:                                  ; preds = %if.then.i.i.i
  store i32 0, ptr %_M_use_count.i.i.i.i, align 8
  %_M_weak_count.i.i.i.i = getelementptr inbounds i8, ptr %0, i64 12
  store i32 0, ptr %_M_weak_count.i.i.i.i, align 4
  %vtable.i.i.i.i = load ptr, ptr %0, align 8
  %vfn.i.i.i.i = getelementptr inbounds i8, ptr %vtable.i.i.i.i, i64 16
  %3 = load ptr, ptr %vfn.i.i.i.i, align 8
  tail call void %3(ptr noundef nonnull align 8 dereferenceable(16) %0) #16
  br label %if.end8.sink.split.i.i.i.i

if.end.i.i.i.i:                                   ; preds = %if.then.i.i.i
  %4 = load i8, ptr @__libc_single_threaded, align 1
  %tobool.i.not.i.i.i.i = icmp eq i8 %4, 0
  br i1 %tobool.i.not.i.i.i.i, label %if.else.i.i.i.i.i, label %if.then.i.i.i.i.i

if.then.i.i.i.i.i:                                ; preds = %if.end.i.i.i.i
  %add.i.i.i.i.i = add nsw i32 %2, -1
  store i32 %add.i.i.i.i.i, ptr %_M_use_count.i.i.i.i, align 4
  br label %_ZN9__gnu_cxx27__exchange_and_add_dispatchEPii.exit.i.i.i.i

if.else.i.i.i.i.i:                                ; preds = %if.end.i.i.i.i
  %5 = atomicrmw volatile add ptr %_M_use_count.i.i.i.i, i32 -1 acq_rel, align 4
  br label %_ZN9__gnu_cxx27__exchange_and_add_dispatchEPii.exit.i.i.i.i

_ZN9__gnu_cxx27__exchange_and_add_dispatchEPii.exit.i.i.i.i: ; preds = %if.else.i.i.i.i.i, %if.then.i.i.i.i.i
  %retval.i.0.i.i.i.i = phi i32 [ %2, %if.then.i.i.i.i.i ], [ %5, %if.else.i.i.i.i.i ]
  %cmp6.i.i.i.i = icmp eq i32 %retval.i.0.i.i.i.i, 1
  br i1 %cmp6.i.i.i.i, label %if.then7.i.i.i.i, label %_ZNSt10shared_ptrIN5arrow6BufferEED2Ev.exit

if.then7.i.i.i.i:                                 ; preds = %_ZN9__gnu_cxx27__exchange_and_add_dispatchEPii.exit.i.i.i.i
  %vtable.i.i.i.i.i.i = load ptr, ptr %0, align 8
  %vfn.i.i.i.i.i.i = getelementptr inbounds i8, ptr %vtable.i.i.i.i.i.i, i64 16
  %6 = load ptr, ptr %vfn.i.i.i.i.i.i, align 8
  tail call void %6(ptr noundef nonnull align 8 dereferenceable(16) %0) #16
  %_M_weak_count.i.i.i.i.i.i = getelementptr inbounds i8, ptr %0, i64 12
  %7 = load i8, ptr @__libc_single_threaded, align 1
  %tobool.i.not.i.i.i.i.i.i = icmp eq i8 %7, 0
  br i1 %tobool.i.not.i.i.i.i.i.i, label %if.else.i.i.i.i.i.i.i, label %if.then.i.i.i.i.i.i.i

if.then.i.i.i.i.i.i.i:                            ; preds = %if.then7.i.i.i.i
  %8 = load i32, ptr %_M_weak_count.i.i.i.i.i.i, align 4
  %add.i.i.i.i.i.i.i = add nsw i32 %8, -1
  store i32 %add.i.i.i.i.i.i.i, ptr %_M_weak_count.i.i.i.i.i.i, align 4
  br label %_ZN9__gnu_cxx27__exchange_and_add_dispatchEPii.exit.i.i.i.i.i.i

if.else.i.i.i.i.i.i.i:                            ; preds = %if.then7.i.i.i.i
  %9 = atomicrmw volatile add ptr %_M_weak_count.i.i.i.i.i.i, i32 -1 acq_rel, align 4
  br label %_ZN9__gnu_cxx27__exchange_and_add_dispatchEPii.exit.i.i.i.i.i.i

_ZN9__gnu_cxx27__exchange_and_add_dispatchEPii.exit.i.i.i.i.i.i: ; preds = %if.else.i.i.i.i.i.i.i, %if.then.i.i.i.i.i.i.i
  %retval.i.0.i.i.i.i.i.i = phi i32 [ %8, %if.then.i.i.i.i.i.i.i ], [ %9, %if.else.i.i.i.i.i.i.i ]
  %cmp.i.i.i.i.i.i = icmp eq i32 %retval.i.0.i.i.i.i.i.i, 1
  br i1 %cmp.i.i.i.i.i.i, label %if.end8.sink.split.i.i.i.i, label %_ZNSt10shared_ptrIN5arrow6BufferEED2Ev.exit

if.end8.sink.split.i.i.i.i:                       ; preds = %_ZN9__gnu_cxx27__exchange_and_add_dispatchEPii.exit.i.i.i.i.i.i, %if.then.i.i.i.i
  %vtable2.i.i.i.i.i.i = load ptr, ptr %0, align 8
  %vfn3.i.i.i.i.i.i = getelementptr inbounds i8, ptr %vtable2.i.i.i.i.i.i, i64 24
  %10 = load ptr, ptr %vfn3.i.i.i.i.i.i, align 8
  tail call void %10(ptr noundef nonnull align 8 dereferenceable(16) %0) #16
  br label %_ZNSt10shared_ptrIN5arrow6BufferEED2Ev.exit

_ZNSt10shared_ptrIN5arrow6BufferEED2Ev.exit:      ; preds = %entry, %_ZN9__gnu_cxx27__exchange_and_add_dispatchEPii.exit.i.i.i.i, %_ZN9__gnu_cxx27__exchange_and_add_dispatchEPii.exit.i.i.i.i.i.i, %if.end8.sink.split.i.i.i.i
  %_M_refcount.i.i1 = getelementptr inbounds i8, ptr %this, i64 32
  %11 = load ptr, ptr %_M_refcount.i.i1, align 8
  %cmp.not.i.i.i2 = icmp eq ptr %11, null
  br i1 %cmp.not.i.i.i2, label %_ZNSt10shared_ptrIN5arrow9ArrayDataEED2Ev.exit, label %if.then.i.i.i3

if.then.i.i.i3:                                   ; preds = %_ZNSt10shared_ptrIN5arrow6BufferEED2Ev.exit
  %_M_use_count.i.i.i.i4 = getelementptr inbounds i8, ptr %11, i64 8
  %12 = load atomic i64, ptr %_M_use_count.i.i.i.i4 acquire, align 8
  %cmp.i.i.i.i5 = icmp eq i64 %12, 4294967297
  %13 = trunc i64 %12 to i32
  br i1 %cmp.i.i.i.i5, label %if.then.i.i.i.i28, label %if.end.i.i.i.i6

if.then.i.i.i.i28:                                ; preds = %if.then.i.i.i3
  store i32 0, ptr %_M_use_count.i.i.i.i4, align 8
  %_M_weak_count.i.i.i.i29 = getelementptr inbounds i8, ptr %11, i64 12
  store i32 0, ptr %_M_weak_count.i.i.i.i29, align 4
  %vtable.i.i.i.i30 = load ptr, ptr %11, align 8
  %vfn.i.i.i.i31 = getelementptr inbounds i8, ptr %vtable.i.i.i.i30, i64 16
  %14 = load ptr, ptr %vfn.i.i.i.i31, align 8
  tail call void %14(ptr noundef nonnull align 8 dereferenceable(16) %11) #16
  br label %if.end8.sink.split.i.i.i.i23

if.end.i.i.i.i6:                                  ; preds = %if.then.i.i.i3
  %15 = load i8, ptr @__libc_single_threaded, align 1
  %tobool.i.not.i.i.i.i7 = icmp eq i8 %15, 0
  br i1 %tobool.i.not.i.i.i.i7, label %if.else.i.i.i.i.i27, label %if.then.i.i.i.i.i8

if.then.i.i.i.i.i8:                               ; preds = %if.end.i.i.i.i6
  %add.i.i.i.i.i9 = add nsw i32 %13, -1
  store i32 %add.i.i.i.i.i9, ptr %_M_use_count.i.i.i.i4, align 4
  br label %_ZN9__gnu_cxx27__exchange_and_add_dispatchEPii.exit.i.i.i.i10

if.else.i.i.i.i.i27:                              ; preds = %if.end.i.i.i.i6
  %16 = atomicrmw volatile add ptr %_M_use_count.i.i.i.i4, i32 -1 acq_rel, align 4
  br label %_ZN9__gnu_cxx27__exchange_and_add_dispatchEPii.exit.i.i.i.i10

_ZN9__gnu_cxx27__exchange_and_add_dispatchEPii.exit.i.i.i.i10: ; preds = %if.else.i.i.i.i.i27, %if.then.i.i.i.i.i8
  %retval.i.0.i.i.i.i11 = phi i32 [ %13, %if.then.i.i.i.i.i8 ], [ %16, %if.else.i.i.i.i.i27 ]
  %cmp6.i.i.i.i12 = icmp eq i32 %retval.i.0.i.i.i.i11, 1
  br i1 %cmp6.i.i.i.i12, label %if.then7.i.i.i.i13, label %_ZNSt10shared_ptrIN5arrow9ArrayDataEED2Ev.exit

if.then7.i.i.i.i13:                               ; preds = %_ZN9__gnu_cxx27__exchange_and_add_dispatchEPii.exit.i.i.i.i10
  %vtable.i.i.i.i.i.i14 = load ptr, ptr %11, align 8
  %vfn.i.i.i.i.i.i15 = getelementptr inbounds i8, ptr %vtable.i.i.i.i.i.i14, i64 16
  %17 = load ptr, ptr %vfn.i.i.i.i.i.i15, align 8
  tail call void %17(ptr noundef nonnull align 8 dereferenceable(16) %11) #16
  %_M_weak_count.i.i.i.i.i.i16 = getelementptr inbounds i8, ptr %11, i64 12
  %18 = load i8, ptr @__libc_single_threaded, align 1
  %tobool.i.not.i.i.i.i.i.i17 = icmp eq i8 %18, 0
  br i1 %tobool.i.not.i.i.i.i.i.i17, label %if.else.i.i.i.i.i.i.i26, label %if.then.i.i.i.i.i.i.i18

if.then.i.i.i.i.i.i.i18:                          ; preds = %if.then7.i.i.i.i13
  %19 = load i32, ptr %_M_weak_count.i.i.i.i.i.i16, align 4
  %add.i.i.i.i.i.i.i19 = add nsw i32 %19, -1
  store i32 %add.i.i.i.i.i.i.i19, ptr %_M_weak_count.i.i.i.i.i.i16, align 4
  br label %_ZN9__gnu_cxx27__exchange_and_add_dispatchEPii.exit.i.i.i.i.i.i20

if.else.i.i.i.i.i.i.i26:                          ; preds = %if.then7.i.i.i.i13
  %20 = atomicrmw volatile add ptr %_M_weak_count.i.i.i.i.i.i16, i32 -1 acq_rel, align 4
  br label %_ZN9__gnu_cxx27__exchange_and_add_dispatchEPii.exit.i.i.i.i.i.i20

_ZN9__gnu_cxx27__exchange_and_add_dispatchEPii.exit.i.i.i.i.i.i20: ; preds = %if.else.i.i.i.i.i.i.i26, %if.then.i.i.i.i.i.i.i18
  %retval.i.0.i.i.i.i.i.i21 = phi i32 [ %19, %if.then.i.i.i.i.i.i.i18 ], [ %20, %if.else.i.i.i.i.i.i.i26 ]
  %cmp.i.i.i.i.i.i22 = icmp eq i32 %retval.i.0.i.i.i.i.i.i21, 1
  br i1 %cmp.i.i.i.i.i.i22, label %if.end8.sink.split.i.i.i.i23, label %_ZNSt10shared_ptrIN5arrow9ArrayDataEED2Ev.exit

if.end8.sink.split.i.i.i.i23:                     ; preds = %_ZN9__gnu_cxx27__exchange_and_add_dispatchEPii.exit.i.i.i.i.i.i20, %if.then.i.i.i.i28
  %vtable2.i.i.i.i.i.i24 = load ptr, ptr %11, align 8
  %vfn3.i.i.i.i.i.i25 = getelementptr inbounds i8, ptr %vtable2.i.i.i.i.i.i24, i64 24
  %21 = load ptr, ptr %vfn3.i.i.i.i.i.i25, align 8
  tail call void %21(ptr noundef nonnull align 8 dereferenceable(16) %11) #16
  br label %_ZNSt10shared_ptrIN5arrow9ArrayDataEED2Ev.exit

_ZNSt10shared_ptrIN5arrow9ArrayDataEED2Ev.exit:   ; preds = %_ZNSt10shared_ptrIN5arrow6BufferEED2Ev.exit, %_ZN9__gnu_cxx27__exchange_and_add_dispatchEPii.exit.i.i.i.i10, %_ZN9__gnu_cxx27__exchange_and_add_dispatchEPii.exit.i.i.i.i.i.i20, %if.end8.sink.split.i.i.i.i23
  ret void
}